; Function Attrs: mustprogress uwtable
define hidden void @_ZN5modelclERK10ref_vectorI4expr11ast_managerE(ptr noalias sret(%class.ref_vector) align 8 %agg.result, ptr noundef nonnull align 8 dereferenceable(160) %this, ptr nocapture noundef nonnull readonly align 8 dereferenceable(16) %ts) local_unnamed_addr #3 align 2 personality ptr @__gxx_personality_v0 {
invoke.cont:
  %ref.tmp = alloca %class.obj_ref, align 8
  %m = getelementptr inbounds i8, ptr %this, i64 8
  %0 = load ptr, ptr %m, align 8
  %1 = ptrtoint ptr %0 to i64
  store i64 %1, ptr %agg.result, align 8
  %m_nodes.i.i = getelementptr inbounds i8, ptr %agg.result, i64 8
  store ptr null, ptr %m_nodes.i.i, align 8
  %m_nodes.i = getelementptr inbounds i8, ptr %ts, i64 8
  %2 = load ptr, ptr %m_nodes.i, align 8
  %cmp.i.i.i = icmp eq ptr %2, null
  br i1 %cmp.i.i.i, label %nrvo.skipdtor, label %_ZNK15ref_vector_coreI4expr19ref_manager_wrapperIS0_11ast_managerEE3endEv.exit

_ZNK15ref_vector_coreI4expr19ref_manager_wrapperIS0_11ast_managerEE3endEv.exit: ; preds = %invoke.cont
  %arrayidx.i.i.i = getelementptr inbounds i8, ptr %2, i64 -4
  %3 = load i32, ptr %arrayidx.i.i.i, align 4
  %4 = zext i32 %3 to i64
  %add.ptr.i = getelementptr inbounds ptr, ptr %2, i64 %4
  %cmp.not8 = icmp eq i32 %3, 0
  br i1 %cmp.not8, label %nrvo.skipdtor, label %for.body.lr.ph

for.body.lr.ph:                                   ; preds = %_ZNK15ref_vector_coreI4expr19ref_manager_wrapperIS0_11ast_managerEE3endEv.exit
  %m_mev.i = getelementptr inbounds i8, ptr %this, i64 128
  br label %for.body

for.body:                                         ; preds = %for.body.lr.ph, %_ZN7obj_refI4expr11ast_managerED2Ev.exit
  %__begin1.09 = phi ptr [ %2, %for.body.lr.ph ], [ %incdec.ptr, %_ZN7obj_refI4expr11ast_managerED2Ev.exit ]
  %5 = load ptr, ptr %__begin1.09, align 8
  invoke void @_ZN15model_evaluatorclEP4expr(ptr nonnull sret(%class.obj_ref) align 8 %ref.tmp, ptr noundef nonnull align 8 dereferenceable(8) %m_mev.i, ptr noundef %5)
          to label %invoke.cont4 unwind label %lpad

invoke.cont4:                                     ; preds = %for.body
  %6 = load ptr, ptr %ref.tmp, align 8
  %7 = load ptr, ptr %m_nodes.i.i, align 8
  %cmp.i.i = icmp eq ptr %7, null
  br i1 %cmp.i.i, label %if.then.i.i, label %lor.lhs.false.i.i

lor.lhs.false.i.i:                                ; preds = %invoke.cont4
  %arrayidx.i.i = getelementptr inbounds i8, ptr %7, i64 -4
  %8 = load i32, ptr %arrayidx.i.i, align 4
  %arrayidx4.i.i = getelementptr inbounds i8, ptr %7, i64 -8
  %9 = load i32, ptr %arrayidx4.i.i, align 4
  %cmp5.i.i = icmp eq i32 %8, %9
  br i1 %cmp5.i.i, label %if.then.i.i, label %_ZN7obj_refI4expr11ast_managerED2Ev.exit

if.then.i.i:                                      ; preds = %lor.lhs.false.i.i, %invoke.cont4
  invoke void @_ZN6vectorIP4exprLb0EjE13expand_vectorEv(ptr noundef nonnull align 8 dereferenceable(8) %m_nodes.i.i)
          to label %.noexc unwind label %lpad5

.noexc:                                           ; preds = %if.then.i.i
  %.pre.i.i = load ptr, ptr %m_nodes.i.i, align 8
  %arrayidx8.phi.trans.insert.i.i = getelementptr inbounds i8, ptr %.pre.i.i, i64 -4
  %.pre1.i.i = load i32, ptr %arrayidx8.phi.trans.insert.i.i, align 4
  br label %_ZN7obj_refI4expr11ast_managerED2Ev.exit

_ZN7obj_refI4expr11ast_managerED2Ev.exit:         ; preds = %lor.lhs.false.i.i, %.noexc
  %10 = phi i32 [ %.pre1.i.i, %.noexc ], [ %8, %lor.lhs.false.i.i ]
  %11 = phi ptr [ %.pre.i.i, %.noexc ], [ %7, %lor.lhs.false.i.i ]
  %idx.ext.i.i = zext i32 %10 to i64
  %add.ptr.i.i = getelementptr inbounds ptr, ptr %11, i64 %idx.ext.i.i
  store ptr %6, ptr %add.ptr.i.i, align 8
  %12 = load ptr, ptr %m_nodes.i.i, align 8
  %arrayidx10.i.i = getelementptr inbounds i8, ptr %12, i64 -4
  %13 = load i32, ptr %arrayidx10.i.i, align 4
  %inc.i.i = add i32 %13, 1
  store i32 %inc.i.i, ptr %arrayidx10.i.i, align 4
  store ptr null, ptr %ref.tmp, align 8
  %incdec.ptr = getelementptr inbounds i8, ptr %__begin1.09, i64 8
  %cmp.not = icmp eq ptr %incdec.ptr, %add.ptr.i
  br i1 %cmp.not, label %nrvo.skipdtor, label %for.body

lpad:                                             ; preds = %for.body
  %14 = landingpad { ptr, i32 }
          cleanup
  br label %ehcleanup

lpad5:                                            ; preds = %if.then.i.i
  %15 = landingpad { ptr, i32 }
          cleanup
  call void @_ZN7obj_refI4expr11ast_managerED2Ev(ptr noundef nonnull align 8 dereferenceable(16) %ref.tmp) #19
  br label %ehcleanup

nrvo.skipdtor:                                    ; preds = %_ZN7obj_refI4expr11ast_managerED2Ev.exit, %invoke.cont, %_ZNK15ref_vector_coreI4expr19ref_manager_wrapperIS0_11ast_managerEE3endEv.exit
  ret void

ehcleanup:                                        ; preds = %lpad5, %lpad
  %.pn = phi { ptr, i32 } [ %15, %lpad5 ], [ %14, %lpad ]
  call void @_ZN10ref_vectorI4expr11ast_managerED2Ev(ptr noundef nonnull align 8 dereferenceable(16) %agg.result) #19
  resume { ptr, i32 } %.pn
}